target datalayout = "e-m:e-p270:32:32-p271:32:32-p272:64:64-i64:64-i128:128-f80:128-n8:16:32:64-S128"
target triple = "x86_64-pc-linux-gnu"

%struct.QemuMutex = type { %union.pthread_mutex_t, i8 }
%union.pthread_mutex_t = type { %struct.__pthread_mutex_s }
%struct.__pthread_mutex_s = type { i32, i32, i32, i32, i32, i16, i16, %struct.__pthread_internal_list }
%struct.__pthread_internal_list = type { ptr, ptr }
%struct.BlockJob = type { %struct.Job, i32, i64, %struct.RateLimit, ptr, %struct.Notifier, %struct.Notifier, %struct.Notifier, %struct.Notifier, %struct.Notifier, ptr }
%struct.Job = type { ptr, ptr, ptr, i8, i8, ptr, ptr, %struct.ProgressMeter, ptr, i32, i32, %struct.QEMUTimer, i32, i8, i8, i8, i8, i8, i8, i32, ptr, %struct.NotifierList, %struct.NotifierList, %struct.NotifierList, %struct.NotifierList, %struct.NotifierList, %struct.anon.0, ptr, %struct.anon.1 }
%struct.ProgressMeter = type { i64, i64, %struct.QemuMutex }
%struct.QEMUTimer = type { i64, ptr, ptr, ptr, ptr, i32, i32 }
%struct.NotifierList = type { %struct.anon }
%struct.anon = type { ptr }
%struct.anon.0 = type { ptr, ptr }
%struct.anon.1 = type { ptr, ptr }
%struct.RateLimit = type { %struct.QemuMutex, i64, i64, i64, i64, i64 }
%struct.Notifier = type { ptr, %struct.anon.2 }
%struct.anon.2 = type { ptr, ptr }
%struct.QemuLockable = type { ptr, ptr, ptr }

@.str.16 = private unnamed_addr constant [16 x i8] c"limit->slice_ns\00", align 1
@.str.17 = private unnamed_addr constant [103 x i8] c"/home/dtcxzyw/WorkSpace/Projects/compilers/llvm-opt-benchmark/bench/qemu/qemu/include/qemu/ratelimit.h\00", align 1
@__PRETTY_FUNCTION__.ratelimit_calculate_delay = private unnamed_addr constant [57 x i8] c"int64_t ratelimit_calculate_delay(RateLimit *, uint64_t)\00", align 1

; Function Attrs: inlinehint nounwind sspstrong uwtable
define internal void @qemu_lockable_unlock(ptr noundef %0) #4 {
  %2 = alloca ptr, align 8
  store ptr %0, ptr %2, align 8
  %3 = load ptr, ptr %2, align 8
  %4 = getelementptr inbounds nuw %struct.QemuLockable, ptr %3, i32 0, i32 2
  %5 = load ptr, ptr %4, align 8
  %6 = load ptr, ptr %2, align 8
  %7 = getelementptr inbounds nuw %struct.QemuLockable, ptr %6, i32 0, i32 0
  %8 = load ptr, ptr %7, align 8
  call void %5(ptr noundef %8)
  ret void
}

; Function Attrs: inlinehint nounwind sspstrong uwtable
define internal void @qemu_lockable_auto_unlock(ptr noundef %0) #4 {
  %2 = alloca ptr, align 8
  store ptr %0, ptr %2, align 8
  %3 = load ptr, ptr %2, align 8
  %4 = icmp ne ptr %3, null
  br i1 %4, label %5, label %7

5:                                                ; preds = %1
  %6 = load ptr, ptr %2, align 8
  call void @qemu_lockable_unlock(ptr noundef %6)
  br label %7

7:                                                ; preds = %5, %1
  ret void
}

; Function Attrs: inlinehint nounwind sspstrong uwtable
define internal void @glib_autoptr_clear_QemuLockable(ptr noundef %0) #4 {
  %2 = alloca ptr, align 8
  store ptr %0, ptr %2, align 8
  %3 = load ptr, ptr %2, align 8
  %4 = icmp ne ptr %3, null
  br i1 %4, label %5, label %7

5:                                                ; preds = %1
  %6 = load ptr, ptr %2, align 8
  call void @qemu_lockable_auto_unlock(ptr noundef %6)
  br label %7

7:                                                ; preds = %5, %1
  ret void
}

; Function Attrs: inlinehint nounwind sspstrong uwtable
define internal void @qemu_lockable_lock(ptr noundef %0) #4 {
  %2 = alloca ptr, align 8
  store ptr %0, ptr %2, align 8
  %3 = load ptr, ptr %2, align 8
  %4 = getelementptr inbounds nuw %struct.QemuLockable, ptr %3, i32 0, i32 1
  %5 = load ptr, ptr %4, align 8
  %6 = load ptr, ptr %2, align 8
  %7 = getelementptr inbounds nuw %struct.QemuLockable, ptr %6, i32 0, i32 0
  %8 = load ptr, ptr %7, align 8
  call void %5(ptr noundef %8)
  ret void
}

; Function Attrs: inlinehint nounwind sspstrong uwtable
define internal void @glib_autoptr_cleanup_QemuLockable(ptr noundef %0) #4 {
  %2 = alloca ptr, align 8
  store ptr %0, ptr %2, align 8
  %3 = load ptr, ptr %2, align 8
  %4 = load ptr, ptr %3, align 8
  call void @glib_autoptr_clear_QemuLockable(ptr noundef %4)
  ret void
}

; Function Attrs: inlinehint nounwind sspstrong uwtable
define internal ptr @qemu_lockable_auto_lock(ptr noundef %0) #4 {
  %2 = alloca ptr, align 8
  store ptr %0, ptr %2, align 8
  %3 = load ptr, ptr %2, align 8
  call void @qemu_lockable_lock(ptr noundef %3)
  %4 = load ptr, ptr %2, align 8
  ret ptr %4
}

; Function Attrs: alwaysinline nounwind sspstrong uwtable
define internal ptr @qemu_make_lockable(ptr noundef %0, ptr noundef %1) #5 {
  %3 = alloca ptr, align 8
  %4 = alloca ptr, align 8
  store ptr %0, ptr %3, align 8
  store ptr %1, ptr %4, align 8
  %5 = load ptr, ptr %3, align 8
  %6 = icmp ne ptr %5, null
  br i1 %6, label %7, label %9

7:                                                ; preds = %2
  %8 = load ptr, ptr %4, align 8
  br label %10

9:                                                ; preds = %2
  br label %10

10:                                               ; preds = %9, %7
  %11 = phi ptr [ %8, %7 ], [ null, %9 ]
  ret ptr %11
}

; Function Attrs: inlinehint nounwind sspstrong uwtable
define internal i64 @ratelimit_calculate_delay(ptr noundef %0, i64 noundef %1) #4 {
  %3 = alloca i64, align 8
  %4 = alloca ptr, align 8
  %5 = alloca i64, align 8
  %6 = alloca i64, align 8
  %7 = alloca double, align 8
  %8 = alloca ptr, align 8
  %9 = alloca %struct.QemuLockable, align 8
  %10 = alloca i32, align 4
  store ptr %0, ptr %4, align 8
  store i64 %1, ptr %5, align 8
  call void @llvm.lifetime.start.p0(i64 8, ptr %6) #12
  %11 = call i64 @qemu_clock_get_ns(i32 noundef 0)
  store i64 %11, ptr %6, align 8
  call void @llvm.lifetime.start.p0(i64 8, ptr %7) #12
  store double 0.000000e+00, ptr %7, align 8, !annotation !8
  call void @llvm.lifetime.start.p0(i64 8, ptr %8) #12
  %12 = load ptr, ptr %4, align 8
  %13 = getelementptr inbounds nuw %struct.RateLimit, ptr %12, i32 0, i32 0
  %14 = getelementptr inbounds nuw %struct.QemuLockable, ptr %9, i32 0, i32 0
  %15 = load ptr, ptr %4, align 8
  %16 = getelementptr inbounds nuw %struct.RateLimit, ptr %15, i32 0, i32 0
  store ptr %16, ptr %14, align 8
  %17 = getelementptr inbounds nuw %struct.QemuLockable, ptr %9, i32 0, i32 1
  store ptr @qemu_lockable_mutex_lock, ptr %17, align 8
  %18 = getelementptr inbounds nuw %struct.QemuLockable, ptr %9, i32 0, i32 2
  store ptr @qemu_lockable_mutex_unlock, ptr %18, align 8
  %19 = call ptr @qemu_make_lockable(ptr noundef %13, ptr noundef %9)
  %20 = call ptr @qemu_lockable_auto_lock(ptr noundef %19)
  store ptr %20, ptr %8, align 8
  %21 = load ptr, ptr %4, align 8
  %22 = getelementptr inbounds nuw %struct.RateLimit, ptr %21, i32 0, i32 3
  %23 = load i64, ptr %22, align 8
  %24 = icmp ne i64 %23, 0
  br i1 %24, label %26, label %25

25:                                               ; preds = %2
  store i64 0, ptr %3, align 8
  store i32 1, ptr %10, align 4
  br label %94

26:                                               ; preds = %2
  %27 = load ptr, ptr %4, align 8
  %28 = getelementptr inbounds nuw %struct.RateLimit, ptr %27, i32 0, i32 4
  %29 = load i64, ptr %28, align 8
  %30 = icmp ne i64 %29, 0
  br i1 %30, label %31, label %32

31:                                               ; preds = %26
  br label %33

32:                                               ; preds = %26
  call void @__assert_fail(ptr noundef @.str.16, ptr noundef @.str.17, i32 noundef 50, ptr noundef @__PRETTY_FUNCTION__.ratelimit_calculate_delay) #13
  unreachable

33:                                               ; preds = %31
  %34 = load ptr, ptr %4, align 8
  %35 = getelementptr inbounds nuw %struct.RateLimit, ptr %34, i32 0, i32 2
  %36 = load i64, ptr %35, align 8
  %37 = load i64, ptr %6, align 8
  %38 = icmp slt i64 %36, %37
  br i1 %38, label %39, label %52

39:                                               ; preds = %33
  %40 = load i64, ptr %6, align 8
  %41 = load ptr, ptr %4, align 8
  %42 = getelementptr inbounds nuw %struct.RateLimit, ptr %41, i32 0, i32 1
  store i64 %40, ptr %42, align 8
  %43 = load i64, ptr %6, align 8
  %44 = load ptr, ptr %4, align 8
  %45 = getelementptr inbounds nuw %struct.RateLimit, ptr %44, i32 0, i32 4
  %46 = load i64, ptr %45, align 8
  %47 = add i64 %43, %46
  %48 = load ptr, ptr %4, align 8
  %49 = getelementptr inbounds nuw %struct.RateLimit, ptr %48, i32 0, i32 2
  store i64 %47, ptr %49, align 8
  %50 = load ptr, ptr %4, align 8
  %51 = getelementptr inbounds nuw %struct.RateLimit, ptr %50, i32 0, i32 5
  store i64 0, ptr %51, align 8
  br label %52

52:                                               ; preds = %39, %33
  %53 = load i64, ptr %5, align 8
  %54 = load ptr, ptr %4, align 8
  %55 = getelementptr inbounds nuw %struct.RateLimit, ptr %54, i32 0, i32 5
  %56 = load i64, ptr %55, align 8
  %57 = add i64 %56, %53
  store i64 %57, ptr %55, align 8
  %58 = load ptr, ptr %4, align 8
  %59 = getelementptr inbounds nuw %struct.RateLimit, ptr %58, i32 0, i32 5
  %60 = load i64, ptr %59, align 8
  %61 = load ptr, ptr %4, align 8
  %62 = getelementptr inbounds nuw %struct.RateLimit, ptr %61, i32 0, i32 3
  %63 = load i64, ptr %62, align 8
  %64 = icmp ult i64 %60, %63
  br i1 %64, label %65, label %66

65:                                               ; preds = %52
  store i64 0, ptr %3, align 8
  store i32 1, ptr %10, align 4
  br label %94

66:                                               ; preds = %52
  %67 = load ptr, ptr %4, align 8
  %68 = getelementptr inbounds nuw %struct.RateLimit, ptr %67, i32 0, i32 5
  %69 = load i64, ptr %68, align 8
  %70 = uitofp i64 %69 to double
  %71 = load ptr, ptr %4, align 8
  %72 = getelementptr inbounds nuw %struct.RateLimit, ptr %71, i32 0, i32 3
  %73 = load i64, ptr %72, align 8
  %74 = uitofp i64 %73 to double
  %75 = fdiv double %70, %74
  store double %75, ptr %7, align 8
  %76 = load ptr, ptr %4, align 8
  %77 = getelementptr inbounds nuw %struct.RateLimit, ptr %76, i32 0, i32 1
  %78 = load i64, ptr %77, align 8
  %79 = load double, ptr %7, align 8
  %80 = load ptr, ptr %4, align 8
  %81 = getelementptr inbounds nuw %struct.RateLimit, ptr %80, i32 0, i32 4
  %82 = load i64, ptr %81, align 8
  %83 = uitofp i64 %82 to double
  %84 = fmul double %79, %83
  %85 = fptoui double %84 to i64
  %86 = add i64 %78, %85
  %87 = load ptr, ptr %4, align 8
  %88 = getelementptr inbounds nuw %struct.RateLimit, ptr %87, i32 0, i32 2
  store i64 %86, ptr %88, align 8
  %89 = load ptr, ptr %4, align 8
  %90 = getelementptr inbounds nuw %struct.RateLimit, ptr %89, i32 0, i32 2
  %91 = load i64, ptr %90, align 8
  %92 = load i64, ptr %6, align 8
  %93 = sub i64 %91, %92
  store i64 %93, ptr %3, align 8
  store i32 1, ptr %10, align 4
  br label %94

94:                                               ; preds = %66, %65, %25
  call void @glib_autoptr_cleanup_QemuLockable(ptr noundef %8)
  call void @llvm.lifetime.end.p0(i64 8, ptr %8) #12
  call void @llvm.lifetime.end.p0(i64 8, ptr %7) #12
  call void @llvm.lifetime.end.p0(i64 8, ptr %6) #12
  %95 = load i64, ptr %3, align 8
  ret i64 %95
}

; Function Attrs: nounwind sspstrong uwtable
define dso_local void @block_job_ratelimit_sleep(ptr noundef %0) #0 {
  %2 = alloca ptr, align 8
  %3 = alloca i64, align 8
  store ptr %0, ptr %2, align 8
  call void @llvm.lifetime.start.p0(i64 8, ptr %3) #12
  store i64 0, ptr %3, align 8, !annotation !8
  br label %4

4:                                                ; preds = %19, %1
  %5 = load ptr, ptr %2, align 8
  %6 = getelementptr inbounds nuw %struct.BlockJob, ptr %5, i32 0, i32 3
  %7 = call i64 @ratelimit_calculate_delay(ptr noundef %6, i64 noundef 0)
  store i64 %7, ptr %3, align 8
  %8 = load ptr, ptr %2, align 8
  %9 = getelementptr inbounds nuw %struct.BlockJob, ptr %8, i32 0, i32 0
  %10 = load i64, ptr %3, align 8
  call void @job_sleep_ns(ptr noundef %9, i64 noundef %10)
  br label %11

11:                                               ; preds = %4
  %12 = load i64, ptr %3, align 8
  %13 = icmp ne i64 %12, 0
  br i1 %13, label %14, label %19

14:                                               ; preds = %11
  %15 = load ptr, ptr %2, align 8
  %16 = getelementptr inbounds nuw %struct.BlockJob, ptr %15, i32 0, i32 0
  %17 = call zeroext i1 @job_is_cancelled(ptr noundef %16)
  %18 = xor i1 %17, true
  br label %19

19:                                               ; preds = %14, %11
  %20 = phi i1 [ false, %11 ], [ %18, %14 ]
  br i1 %20, label %4, label %21, !llvm.loop !10

21:                                               ; preds = %19
  call void @llvm.lifetime.end.p0(i64 8, ptr %3) #12
  ret void
}