; Function Attrs: nounwind sspstrong uwtable
define dso_local void @block_job_ratelimit_sleep(ptr noundef %0) local_unnamed_addr #0 {
  %2 = getelementptr inbounds nuw i8, ptr %0, i64 296
  %3 = getelementptr inbounds nuw i8, ptr %0, i64 360
  %4 = getelementptr inbounds nuw i8, ptr %0, i64 368
  %5 = getelementptr inbounds nuw i8, ptr %0, i64 352
  %.phi.trans.insert.i = getelementptr inbounds nuw i8, ptr %0, i64 376
  %6 = getelementptr inbounds nuw i8, ptr %0, i64 344
  br label %7

7:                                                ; preds = %33, %1
  %8 = tail call i64 @qemu_clock_get_ns(i32 noundef 0) #8
  %9 = load atomic i64, ptr @qemu_mutex_lock_func monotonic, align 8
  %10 = inttoptr i64 %9 to ptr
  tail call void %10(ptr noundef nonnull %2, ptr noundef nonnull @.str.13, i32 noundef 56) #8
  %11 = load i64, ptr %3, align 8
  %.not.i = icmp eq i64 %11, 0
  br i1 %.not.i, label %ratelimit_calculate_delay.exit, label %12

12:                                               ; preds = %7
  %13 = load i64, ptr %4, align 8
  %.not27.i = icmp eq i64 %13, 0
  br i1 %.not27.i, label %14, label %15

14:                                               ; preds = %12
  tail call void @__assert_fail(ptr noundef nonnull @.str.16, ptr noundef nonnull @.str.17, i32 noundef 50, ptr noundef nonnull @__PRETTY_FUNCTION__.ratelimit_calculate_delay) #9
  unreachable

15:                                               ; preds = %12
  %16 = load i64, ptr %5, align 8
  %17 = icmp slt i64 %16, %8
  br i1 %17, label %18, label %._crit_edge.i

._crit_edge.i:                                    ; preds = %15
  %.pre.i = load i64, ptr %.phi.trans.insert.i, align 8
  br label %20

18:                                               ; preds = %15
  store i64 %8, ptr %6, align 8
  %19 = add i64 %13, %8
  store i64 %19, ptr %5, align 8
  br label %20

20:                                               ; preds = %18, %._crit_edge.i
  %21 = phi i64 [ %.pre.i, %._crit_edge.i ], [ 0, %18 ]
  store i64 %21, ptr %.phi.trans.insert.i, align 8
  %22 = icmp ult i64 %21, %11
  br i1 %22, label %ratelimit_calculate_delay.exit, label %23

23:                                               ; preds = %20
  %24 = uitofp i64 %21 to double
  %25 = uitofp i64 %11 to double
  %26 = fdiv double %24, %25
  %27 = load i64, ptr %6, align 8
  %28 = uitofp i64 %13 to double
  %29 = fmul double %26, %28
  %30 = fptoui double %29 to i64
  %31 = add i64 %27, %30
  store i64 %31, ptr %5, align 8
  %32 = sub i64 %31, %8
  br label %ratelimit_calculate_delay.exit

ratelimit_calculate_delay.exit:                   ; preds = %7, %20, %23
  %.0.i = phi i64 [ %32, %23 ], [ 0, %7 ], [ 0, %20 ]
  tail call void @qemu_mutex_unlock_impl(ptr noundef nonnull %2, ptr noundef nonnull @.str.13, i32 noundef 56) #8
  tail call void @job_sleep_ns(ptr noundef nonnull %0, i64 noundef %.0.i) #8
  %.not = icmp eq i64 %.0.i, 0
  br i1 %.not, label %.critedge, label %33

33:                                               ; preds = %ratelimit_calculate_delay.exit
  %34 = tail call zeroext i1 @job_is_cancelled(ptr noundef nonnull %0) #8
  br i1 %34, label %.critedge, label %7, !llvm.loop !8

.critedge:                                        ; preds = %ratelimit_calculate_delay.exit, %33
  ret void
}